target datalayout = "e-m:e-p270:32:32-p271:32:32-p272:64:64-i64:64-i128:128-f80:128-n8:16:32:64-S128"
target triple = "x86_64-unknown-linux-gnu"

%"class.std::basic_string_view" = type { i64, ptr }
%"class.std::__cxx11::basic_string" = type { %"struct.std::__cxx11::basic_string<char>::_Alloc_hider", i64, %union.anon }
%"struct.std::__cxx11::basic_string<char>::_Alloc_hider" = type { ptr }
%union.anon = type { i64, [8 x i8] }
%"class.google::protobuf::Descriptor" = type { %"class.google::protobuf::internal::SymbolBase", i8, i16, i32, ptr, ptr, ptr, ptr, ptr, ptr, ptr, ptr, ptr, ptr, ptr, ptr, ptr, ptr, i32, i32, i32, i32, i32, i32, i32, i32 }
%"class.google::protobuf::internal::SymbolBase" = type { i8 }
%"class.google::protobuf::FileDescriptor" = type { %"class.google::protobuf::internal::SymbolBase", i8, i8, i32, ptr, ptr, ptr, i32, ptr, i32, i32, i32, i32, i32, i32, ptr, ptr, ptr, ptr, ptr, ptr, ptr, ptr, ptr, ptr, ptr, ptr }

; Function Attrs: mustprogress nounwind uwtable
define linkonce_odr hidden noundef nonnull align 8 dereferenceable(32) ptr @_ZNK6google8protobuf14FileDescriptor7packageB5cxx11Ev(ptr noundef nonnull align 8 dereferenceable(168) %this) #5 comdat align 2 {
entry:
  %this.addr = alloca ptr, align 8
  store ptr %this, ptr %this.addr, align 8
  %this1 = load ptr, ptr %this.addr, align 8
  %package_ = getelementptr inbounds %"class.google::protobuf::FileDescriptor", ptr %this1, i32 0, i32 5
  %0 = load ptr, ptr %package_, align 8
  ret ptr %0
}

; Function Attrs: mustprogress uwtable
define hidden void @_ZN6google8protobuf8compiler3cpp9NamespaceB5cxx11EPKNS0_14FileDescriptorERKNS2_7OptionsE(ptr noalias sret(%"class.std::__cxx11::basic_string") align 8 %agg.result, ptr noundef %d, ptr noundef nonnull align 8 dereferenceable(206) %options) #4 {
entry:
  %result.ptr = alloca ptr, align 8
  %d.addr = alloca ptr, align 8
  %options.addr = alloca ptr, align 8
  %agg.tmp = alloca %"class.std::basic_string_view", align 8
  store ptr %agg.result, ptr %result.ptr, align 8
  store ptr %d, ptr %d.addr, align 8
  store ptr %options, ptr %options.addr, align 8
  %0 = load ptr, ptr %d.addr, align 8
  %call = call noundef nonnull align 8 dereferenceable(32) ptr @_ZNK6google8protobuf14FileDescriptor7packageB5cxx11Ev(ptr noundef nonnull align 8 dereferenceable(168) %0)
  %call1 = call { i64, ptr } @_ZNKSt7__cxx1112basic_stringIcSt11char_traitsIcESaIcEEcvSt17basic_string_viewIcS2_EEv(ptr noundef nonnull align 8 dereferenceable(32) %call) #3
  %1 = getelementptr inbounds { i64, ptr }, ptr %agg.tmp, i32 0, i32 0
  %2 = extractvalue { i64, ptr } %call1, 0
  store i64 %2, ptr %1, align 8
  %3 = getelementptr inbounds { i64, ptr }, ptr %agg.tmp, i32 0, i32 1
  %4 = extractvalue { i64, ptr } %call1, 1
  store ptr %4, ptr %3, align 8
  %5 = getelementptr inbounds { i64, ptr }, ptr %agg.tmp, i32 0, i32 0
  %6 = load i64, ptr %5, align 8
  %7 = getelementptr inbounds { i64, ptr }, ptr %agg.tmp, i32 0, i32 1
  %8 = load ptr, ptr %7, align 8
  call void @_ZN6google8protobuf8compiler3cpp9NamespaceB5cxx11ESt17basic_string_viewIcSt11char_traitsIcEE(ptr sret(%"class.std::__cxx11::basic_string") align 8 %agg.result, i64 %6, ptr %8)
  ret void
}

; Function Attrs: mustprogress nounwind uwtable
define linkonce_odr hidden noundef ptr @_ZNK6google8protobuf10Descriptor4fileEv(ptr noundef nonnull align 8 dereferenceable(152) %this) #5 comdat align 2 {
entry:
  %this.addr = alloca ptr, align 8
  store ptr %this, ptr %this.addr, align 8
  %this1 = load ptr, ptr %this.addr, align 8
  %file_ = getelementptr inbounds %"class.google::protobuf::Descriptor", ptr %this1, i32 0, i32 5
  %0 = load ptr, ptr %file_, align 8
  ret ptr %0
}

; Function Attrs: mustprogress uwtable
define hidden void @_ZN6google8protobuf8compiler3cpp9NamespaceB5cxx11EPKNS0_10DescriptorERKNS2_7OptionsE(ptr noalias sret(%"class.std::__cxx11::basic_string") align 8 %agg.result, ptr noundef %d, ptr noundef nonnull align 8 dereferenceable(206) %options) #4 {
entry:
  %result.ptr = alloca ptr, align 8
  %d.addr = alloca ptr, align 8
  %options.addr = alloca ptr, align 8
  store ptr %agg.result, ptr %result.ptr, align 8
  store ptr %d, ptr %d.addr, align 8
  store ptr %options, ptr %options.addr, align 8
  %0 = load ptr, ptr %d.addr, align 8
  %call = call noundef ptr @_ZNK6google8protobuf10Descriptor4fileEv(ptr noundef nonnull align 8 dereferenceable(152) %0)
  %1 = load ptr, ptr %options.addr, align 8
  call void @_ZN6google8protobuf8compiler3cpp9NamespaceB5cxx11EPKNS0_14FileDescriptorERKNS2_7OptionsE(ptr sret(%"class.std::__cxx11::basic_string") align 8 %agg.result, ptr noundef %call, ptr noundef nonnull align 8 dereferenceable(206) %1)
  ret void
}